target datalayout = "e-m:e-p270:32:32-p271:32:32-p272:64:64-i64:64-i128:128-f80:128-n8:16:32:64-S128"
target triple = "x86_64-pc-linux-gnu"

%struct.mbedtls_ssl_ticket_context = type { [2 x %struct.mbedtls_ssl_ticket_key], i8, i32, ptr, ptr }
%struct.mbedtls_ssl_ticket_key = type { [4 x i8], i64, i32, %struct.mbedtls_cipher_context_t }
%struct.mbedtls_cipher_context_t = type { ptr, i32, i32, ptr, ptr, [16 x i8], i64, [16 x i8], i64, ptr, ptr }

; Function Attrs: nounwind uwtable
define hidden void @mbedtls_ssl_ticket_free(ptr noundef %0) #0 {
  %2 = alloca ptr, align 8
  store ptr %0, ptr %2, align 8, !tbaa !3
  %3 = load ptr, ptr %2, align 8, !tbaa !3
  %4 = icmp eq ptr %3, null
  br i1 %4, label %5, label %6

5:                                                ; preds = %1
  br label %16

6:                                                ; preds = %1
  %7 = load ptr, ptr %2, align 8, !tbaa !3
  %8 = getelementptr inbounds nuw %struct.mbedtls_ssl_ticket_context, ptr %7, i32 0, i32 0
  %9 = getelementptr inbounds [2 x %struct.mbedtls_ssl_ticket_key], ptr %8, i64 0, i64 0
  %10 = getelementptr inbounds nuw %struct.mbedtls_ssl_ticket_key, ptr %9, i32 0, i32 3
  call void @mbedtls_cipher_free(ptr noundef %10)
  %11 = load ptr, ptr %2, align 8, !tbaa !3
  %12 = getelementptr inbounds nuw %struct.mbedtls_ssl_ticket_context, ptr %11, i32 0, i32 0
  %13 = getelementptr inbounds [2 x %struct.mbedtls_ssl_ticket_key], ptr %12, i64 0, i64 1
  %14 = getelementptr inbounds nuw %struct.mbedtls_ssl_ticket_key, ptr %13, i32 0, i32 3
  call void @mbedtls_cipher_free(ptr noundef %14)
  %15 = load ptr, ptr %2, align 8, !tbaa !3
  call void @mbedtls_platform_zeroize(ptr noundef %15, i64 noundef 264)
  br label %16

16:                                               ; preds = %6, %5
  ret void
}